(lp1
(lp2
(lp3
I7
aI6
aI8
aa(lp4
I6
aI2
aI9
aa(lp5
I9
aI1
aI5
aa(lp6
I8
aI3
aI4
aaa(lp7
(lp8
I7
aI8
aI6
aag4
ag5
ag6
aa(lp9
(lp10
I6
aI7
aI2
aa(lp11
I7
aI8
aI9
aag5
ag6
aa(lp12
(lp13
I6
aI2
aI7
aag11
ag5
ag6
aa(lp14
(lp15
I6
aI7
aI2
aa(lp16
I7
aI9
aI8
aag5
ag6
aa(lp17
(lp18
I6
aI2
aI7
aag16
ag5
ag6
aa(lp19
(lp20
I7
aI9
aI6
aa(lp21
I6
aI2
aI8
aag5
ag6
aa(lp22
(lp23
I7
aI6
aI9
aag21
ag5
ag6
aa(lp24
(lp25
I7
aI8
aI6
aa(lp26
I6
aI9
aI2
aag5
ag6
aa(lp27
(lp28
I7
aI6
aI8
aag26
ag5
ag6
aa(lp29
(lp30
I7
aI9
aI6
aa(lp31
I6
aI8
aI2
aag5
ag6
aa(lp32
(lp33
I7
aI6
aI9
aag31
ag5
ag6
aa(lp34
(lp35
I6
aI2
aI9
aa(lp36
I9
aI7
aI5
aa(lp37
I7
aI1
aI8
aag6
aa(lp38
(lp39
I6
aI9
aI2
aag36
ag37
ag6
aa(lp40
(lp41
I6
aI9
aI2
aa(lp42
I9
aI7
aI5
aa(lp43
I7
aI8
aI1
aag6
aa(lp44
(lp45
I6
aI2
aI9
aag42
ag43
ag6
aa(lp46
(lp47
I6
aI2
aI7
aa(lp48
I7
aI9
aI1
aa(lp49
I9
aI8
aI5
aag6
aa(lp50
(lp51
I6
aI7
aI2
aag48
ag49
ag6
aa(lp52
(lp53
I6
aI7
aI2
aa(lp54
I7
aI1
aI9
aag49
ag6
aa(lp55
(lp56
I6
aI2
aI7
aag54
ag49
ag6
aa(lp57
(lp58
I7
aI1
aI6
aa(lp59
I6
aI2
aI9
aag49
ag6
aa(lp60
(lp61
I7
aI6
aI1
aag59
ag49
ag6
aa(lp62
(lp63
I7
aI1
aI6
aa(lp64
I6
aI9
aI2
aag49
ag6
aa(lp65
(lp66
I7
aI6
aI1
aag64
ag49
ag6
aa(lp67
(lp68
I6
aI2
aI8
aa(lp69
I8
aI7
aI1
aa(lp70
I7
aI9
aI4
aa(lp71
I9
aI3
aI5
aaa(lp72
(lp73
I6
aI8
aI2
aag69
ag70
ag71
aa(lp74
(lp75
I8
aI1
aI6
aa(lp76
I6
aI7
aI2
aag70
ag71
aa(lp77
(lp78
I8
aI6
aI1
aag76
ag70
ag71
aa(lp79
(lp80
I6
aI8
aI2
aa(lp81
I8
aI1
aI7
aag70
ag71
aa(lp82
(lp83
I6
aI2
aI8
aag81
ag70
ag71
aa(lp84
(lp85
I8
aI1
aI6
aa(lp86
I6
aI2
aI7
aag70
ag71
aa(lp87
(lp88
I8
aI6
aI1
aag86
ag70
ag71
aa(lp89
(lp90
I6
aI2
aI7
aa(lp91
I7
aI4
aI8
aa(lp92
I8
aI1
aI9
aag71
aa(lp93
(lp94
I6
aI7
aI2
aag91
ag92
ag71
aa(lp95
(lp96
I6
aI2
aI7
aa(lp97
I7
aI8
aI4
aag92
ag71
aa(lp98
(lp99
I6
aI7
aI2
aag97
ag92
ag71
aa(lp100
(lp101
I7
aI6
aI4
aa(lp102
I6
aI2
aI8
aag92
ag71
aa(lp103
(lp104
I7
aI4
aI6
aag102
ag92
ag71
aa(lp105
(lp106
I7
aI6
aI4
aa(lp107
I6
aI8
aI2
aag92
ag71
aa(lp108
(lp109
I7
aI4
aI6
aag107
ag92
ag71
aa(lp110
(lp111
I8
aI4
aI6
aa(lp112
I6
aI7
aI2
aa(lp113
I7
aI1
aI9
aag71
aa(lp114
(lp115
I8
aI6
aI4
aag112
ag113
ag71
aa(lp116
(lp117
I6
aI2
aI8
aa(lp118
I8
aI4
aI7
aag113
ag71
aa(lp119
(lp120
I6
aI8
aI2
aag118
ag113
ag71
aa(lp121
(lp122
I6
aI8
aI2
aa(lp123
I8
aI7
aI4
aag113
ag71
aa(lp124
(lp125
I6
aI2
aI8
aag123
ag113
ag71
aa(lp126
(lp127
I8
aI6
aI4
aa(lp128
I6
aI2
aI7
aag113
ag71
aa(lp129
(lp130
I8
aI4
aI6
aag128
ag113
ag71
aa(lp131
(lp132
I7
aI1
aI6
aa(lp133
I6
aI8
aI2
aa(lp134
I8
aI4
aI9
aag71
aa(lp135
(lp136
I7
aI6
aI1
aag133
ag134
ag71
aa(lp137
(lp138
I7
aI1
aI6
aa(lp139
I6
aI2
aI8
aag134
ag71
aa(lp140
(lp141
I7
aI6
aI1
aag139
ag134
ag71
aa(lp142
(lp143
I6
aI2
aI7
aa(lp144
I7
aI1
aI8
aag134
ag71
aa(lp145
(lp146
I6
aI7
aI2
aag144
ag134
ag71
aa(lp147
(lp148
I6
aI2
aI7
aa(lp149
I7
aI8
aI1
aag134
ag71
aa(lp150
(lp151
I6
aI7
aI2
aag149
ag134
ag71
aa(lp152
(lp153
I8
aI9
aI6
aa(lp154
I6
aI2
aI7
aa(lp155
I7
aI4
aI1
aag71
aa(lp156
(lp157
I8
aI6
aI9
aag154
ag155
ag71
aa(lp158
(lp159
I8
aI6
aI7
aa(lp160
I6
aI2
aI9
aag155
ag71
aa(lp161
(lp162
I8
aI7
aI6
aag160
ag155
ag71
aa(lp163
(lp164
I8
aI7
aI6
aa(lp165
I6
aI9
aI2
aag155
ag71
aa(lp166
(lp167
I8
aI6
aI7
aag165
ag155
ag71
aa(lp168
(lp169
I6
aI2
aI8
aa(lp170
I8
aI7
aI9
aag155
ag71
aa(lp171
(lp172
I6
aI8
aI2
aag170
ag155
ag71
aa(lp173
(lp174
I8
aI9
aI6
aa(lp175
I6
aI7
aI2
aag155
ag71
aa(lp176
(lp177
I8
aI6
aI9
aag175
ag155
ag71
aa(lp178
(lp179
I6
aI2
aI8
aa(lp180
I8
aI9
aI7
aag155
ag71
aa(lp181
(lp182
I6
aI8
aI2
aag180
ag155
ag71
aa(lp183
(lp184
I8
aI1
aI7
aa(lp185
I7
aI4
aI6
aa(lp186
I6
aI2
aI9
aag71
aa(lp187
(lp188
I8
aI7
aI1
aag185
ag186
ag71
aa(lp189
(lp190
I7
aI8
aI1
aa(lp191
I8
aI6
aI4
aag186
ag71
aa(lp192
(lp193
I7
aI1
aI8
aag191
ag186
ag71
aa(lp194
(lp195
I7
aI8
aI1
aa(lp196
I8
aI4
aI6
aag186
ag71
aa(lp197
(lp198
I7
aI1
aI8
aag196
ag186
ag71
aa(lp199
(lp200
I7
aI8
aI6
aa(lp201
I8
aI4
aI1
aag186
ag71
aa(lp202
(lp203
I7
aI6
aI8
aag201
ag186
ag71
aa(lp204
(lp205
I8
aI4
aI7
aa(lp206
I7
aI6
aI1
aag186
ag71
aa(lp207
(lp208
I8
aI7
aI4
aag206
ag186
ag71
aa(lp209
(lp210
I7
aI8
aI6
aa(lp211
I8
aI1
aI4
aag186
ag71
aa(lp212
(lp213
I7
aI6
aI8
aag211
ag186
ag71
aa(lp214
(lp215
I8
aI1
aI7
aa(lp216
I7
aI6
aI4
aag186
ag71
aa(lp217
(lp218
I8
aI7
aI1
aag216
ag186
ag71
aa(lp219
(lp220
I7
aI8
aI4
aa(lp221
I8
aI6
aI1
aag186
ag71
aa(lp222
(lp223
I7
aI4
aI8
aag221
ag186
ag71
aa(lp224
(lp225
I8
aI6
aI7
aa(lp226
I7
aI1
aI4
aag186
ag71
aa(lp227
(lp228
I8
aI7
aI6
aag226
ag186
ag71
aa(lp229
(lp230
I8
aI7
aI6
aa(lp231
I7
aI4
aI1
aag186
ag71
aa(lp232
(lp233
I8
aI6
aI7
aag231
ag186
ag71
aa(lp234
(lp235
I7
aI4
aI8
aa(lp236
I8
aI1
aI6
aag186
ag71
aa(lp237
(lp238
I7
aI8
aI4
aag236
ag186
ag71
aa(lp239
(lp240
I8
aI7
aI4
aa(lp241
I7
aI1
aI6
aag186
ag71
aa(lp242
(lp243
I8
aI4
aI7
aag241
ag186
ag71
aa(lp244
(lp245
I6
aI7
aI2
aa(lp246
I7
aI9
aI8
aa(lp247
I8
aI1
aI4
aag71
aa(lp248
(lp249
I6
aI2
aI7
aag246
ag247
ag71
aa(lp250
(lp251
I7
aI9
aI6
aa(lp252
I6
aI8
aI2
aag247
ag71
aa(lp253
(lp254
I7
aI6
aI9
aag252
ag247
ag71
aa(lp255
(lp256
I7
aI6
aI8
aa(lp257
I6
aI9
aI2
aag247
ag71
aa(lp258
(lp259
I7
aI8
aI6
aag257
ag247
ag71
aa(lp260
(lp261
I6
aI7
aI2
aa(lp262
I7
aI8
aI9
aag247
ag71
aa(lp263
(lp264
I6
aI2
aI7
aag262
ag247
ag71
aa(lp265
(lp266
I7
aI8
aI6
aa(lp267
I6
aI2
aI9
aag247
ag71
aa(lp268
(lp269
I7
aI6
aI8
aag267
ag247
ag71
aa(lp270
(lp271
I7
aI6
aI9
aa(lp272
I6
aI2
aI8
aag247
ag71
aa(lp273
(lp274
I7
aI9
aI6
aag272
ag247
ag71
aa(lp275
(lp276
I6
aI7
aI2
aa(lp277
I7
aI9
aI8
aa(lp278
I8
aI4
aI1
aag71
aa(lp279
(lp280
I6
aI2
aI7
aag277
ag278
ag71
aa(lp281
(lp282
I7
aI9
aI6
aa(lp283
I6
aI2
aI8
aag278
ag71
aa(lp284
(lp285
I7
aI6
aI9
aag283
ag278
ag71
aa(lp286
(lp287
I7
aI8
aI6
aa(lp288
I6
aI9
aI2
aag278
ag71
aa(lp289
(lp290
I7
aI6
aI8
aag288
ag278
ag71
aa(lp291
(lp292
I6
aI7
aI2
aa(lp293
I7
aI8
aI9
aag278
ag71
aa(lp294
(lp295
I6
aI2
aI7
aag293
ag278
ag71
aa(lp296
(lp297
I7
aI9
aI6
aa(lp298
I6
aI8
aI2
aag278
ag71
aa(lp299
(lp300
I7
aI6
aI9
aag298
ag278
ag71
aa(lp301
(lp302
I7
aI6
aI8
aa(lp303
I6
aI2
aI9
aag278
ag71
aa(lp304
(lp305
I7
aI8
aI6
aag303
ag278
ag71
aa(lp306
(lp307
I6
aI2
aI8
aa(lp308
I8
aI7
aI1
aa(lp309
I7
aI4
aI9
aag71
aa(lp310
(lp311
I6
aI8
aI2
aag308
ag309
ag71
aa(lp312
(lp313
I6
aI2
aI8
aa(lp314
I8
aI1
aI7
aag309
ag71
aa(lp315
(lp316
I6
aI8
aI2
aag314
ag309
ag71
aa(lp317
(lp318
I8
aI6
aI1
aa(lp319
I6
aI7
aI2
aag309
ag71
aa(lp320
(lp321
I8
aI1
aI6
aag319
ag309
ag71
aa(lp322
(lp323
I8
aI6
aI1
aa(lp324
I6
aI2
aI7
aag309
ag71
aa(lp325
(lp326
I8
aI1
aI6
aag324
ag309
ag71
aa(lp327
(lp328
I6
aI7
aI2
aa(lp329
I7
aI8
aI4
aa(lp330
I8
aI9
aI1
aag71
aa(lp331
(lp332
I6
aI2
aI7
aag329
ag330
ag71
aa(lp333
(lp334
I6
aI7
aI2
aa(lp335
I7
aI4
aI8
aag330
ag71
aa(lp336
(lp337
I6
aI2
aI7
aag335
ag330
ag71
aa(lp338
(lp339
I7
aI4
aI6
aa(lp340
I6
aI2
aI8
aag330
ag71
aa(lp341
(lp342
I7
aI6
aI4
aag340
ag330
ag71
aa(lp343
(lp344
I7
aI6
aI4
aa(lp345
I6
aI8
aI2
aag330
ag71
aa(lp346
(lp347
I7
aI4
aI6
aag345
ag330
ag71
aa(lp348
(lp349
I8
aI4
aI6
aa(lp350
I6
aI2
aI7
aa(lp351
I7
aI9
aI1
aag71
aa(lp352
(lp353
I8
aI6
aI4
aag350
ag351
ag71
aa(lp354
(lp355
I6
aI8
aI2
aa(lp356
I8
aI7
aI4
aag351
ag71
aa(lp357
(lp358
I6
aI2
aI8
aag356
ag351
ag71
aa(lp359
(lp360
I8
aI4
aI6
aa(lp361
I6
aI7
aI2
aag351
ag71
aa(lp362
(lp363
I8
aI6
aI4
aag361
ag351
ag71
aa(lp364
(lp365
I6
aI8
aI2
aa(lp366
I8
aI4
aI7
aag351
ag71
aa(lp367
(lp368
I6
aI2
aI8
aag366
ag351
ag71
aa(lp369
(lp370
I7
aI1
aI6
aa(lp371
I6
aI8
aI2
aa(lp372
I8
aI9
aI4
aag71
aa(lp373
(lp374
I7
aI6
aI1
aag371
ag372
ag71
aa(lp375
(lp376
I6
aI2
aI7
aa(lp377
I7
aI1
aI8
aag372
ag71
aa(lp378
(lp379
I6
aI7
aI2
aag377
ag372
ag71
aa(lp380
(lp381
I7
aI1
aI6
aa(lp382
I6
aI2
aI8
aag372
ag71
aa(lp383
(lp384
I7
aI6
aI1
aag382
ag372
ag71
aa(lp385
(lp386
I6
aI7
aI2
aa(lp387
I7
aI8
aI1
aag372
ag71
aa(lp388
(lp389
I6
aI2
aI7
aag387
ag372
ag71
aa(lp390
(lp391
I7
aI1
aI8
aa(lp392
I8
aI4
aI6
aa(lp393
I6
aI9
aI2
aag71
aa(lp394
(lp395
I7
aI8
aI1
aag392
ag393
ag71
aa(lp396
(lp397
I7
aI4
aI8
aa(lp398
I8
aI1
aI6
aag393
ag71
aa(lp399
(lp400
I7
aI8
aI4
aag398
ag393
ag71
aa(lp401
(lp402
I8
aI7
aI1
aa(lp403
I7
aI4
aI6
aag393
ag71
aa(lp404
(lp405
I8
aI1
aI7
aag403
ag393
ag71
aa(lp406
(lp407
I8
aI7
aI4
aa(lp408
I7
aI1
aI6
aag393
ag71
aa(lp409
(lp410
I8
aI4
aI7
aag408
ag393
ag71
aa(lp411
(lp412
I8
aI7
aI6
aa(lp413
I7
aI4
aI1
aag393
ag71
aa(lp414
(lp415
I8
aI6
aI7
aag413
ag393
ag71
aa(lp416
(lp417
I8
aI6
aI7
aa(lp418
I7
aI1
aI4
aag393
ag71
aa(lp419
(lp420
I8
aI7
aI6
aag418
ag393
ag71
aa(lp421
(lp422
I8
aI4
aI7
aa(lp423
I7
aI6
aI1
aag393
ag71
aa(lp424
(lp425
I8
aI7
aI4
aag423
ag393
ag71
aa(lp426
(lp427
I7
aI8
aI6
aa(lp428
I8
aI4
aI1
aag393
ag71
aa(lp429
(lp430
I7
aI6
aI8
aag428
ag393
ag71
aa(lp431
(lp432
I7
aI8
aI1
aa(lp433
I8
aI6
aI4
aag393
ag71
aa(lp434
(lp435
I7
aI1
aI8
aag433
ag393
ag71
aa(lp436
(lp437
I7
aI8
aI6
aa(lp438
I8
aI1
aI4
aag393
ag71
aa(lp439
(lp440
I7
aI6
aI8
aag438
ag393
ag71
aa(lp441
(lp442
I8
aI7
aI1
aa(lp443
I7
aI6
aI4
aag393
ag71
aa(lp444
(lp445
I8
aI1
aI7
aag443
ag393
ag71
aa(lp446
(lp447
I7
aI4
aI8
aa(lp448
I8
aI6
aI1
aag393
ag71
aa(lp449
(lp450
I7
aI8
aI4
aag448
ag393
ag71
aa(lp451
(lp452
I8
aI7
aI6
aa(lp453
I6
aI9
aI2
aa(lp454
I7
aI1
aI4
aag71
aa(lp455
(lp456
I8
aI6
aI7
aag453
ag454
ag71
aa(lp457
(lp458
I8
aI9
aI6
aa(lp459
I6
aI2
aI7
aag454
ag71
aa(lp460
(lp461
I8
aI6
aI9
aag459
ag454
ag71
aa(lp462
(lp463
I6
aI8
aI2
aa(lp464
I8
aI9
aI7
aag454
ag71
aa(lp465
(lp466
I6
aI2
aI8
aag464
ag454
ag71
aa(lp467
(lp468
I8
aI6
aI7
aa(lp469
I6
aI2
aI9
aag454
ag71
aa(lp470
(lp471
I8
aI7
aI6
aag469
ag454
ag71
aa(lp472
(lp473
I6
aI2
aI8
aa(lp474
I8
aI7
aI9
aag454
ag71
aa(lp475
(lp476
I6
aI8
aI2
aag474
ag454
ag71
aa(lp477
(lp478
I8
aI6
aI9
aa(lp479
I6
aI7
aI2
aag454
ag71
aa(lp480
(lp481
I8
aI9
aI6
aag479
ag454
ag71
aa(lp482
(lp483
I6
aI9
aI2
aa(lp484
I9
aI8
aI5
aa(lp485
I8
aI7
aI4
aa(lp486
I7
aI1
aI3
aaa(lp487
(lp488
I6
aI2
aI9
aag484
ag485
ag486
aa(lp489
(lp490
I6
aI9
aI2
aa(lp491
I9
aI8
aI5
aa(lp492
I8
aI4
aI7
aag486
aa(lp493
(lp494
I6
aI2
aI9
aag491
ag492
ag486
aa(lp495
(lp496
I8
aI4
aI6
aa(lp497
I6
aI2
aI9
aa(lp498
I9
aI7
aI5
aag486
aa(lp499
(lp500
I8
aI6
aI4
aag497
ag498
ag486
aa(lp501
(lp502
I6
aI8
aI2
aa(lp503
I8
aI9
aI4
aag498
ag486
aa(lp504
(lp505
I6
aI2
aI8
aag503
ag498
ag486
aa(lp506
(lp507
I6
aI8
aI2
aa(lp508
I8
aI4
aI9
aag498
ag486
aa(lp509
(lp510
I6
aI2
aI8
aag508
ag498
ag486
aa(lp511
(lp512
I8
aI6
aI4
aa(lp513
I6
aI9
aI2
aag498
ag486
aa(lp514
(lp515
I8
aI4
aI6
aag513
ag498
ag486
aa(lp516
(lp517
I6
aI2
aI9
aa(lp518
I9
aI8
aI5
aa(lp519
I8
aI7
aI3
aa(lp520
I7
aI1
aI4
aaa(lp521
(lp522
I6
aI9
aI2
aag518
ag519
ag520
aa(lp523
(lp524
I8
aI6
aI7
aa(lp525
I6
aI9
aI2
aa(lp526
I9
aI3
aI5
aag520
aa(lp527
(lp528
I8
aI7
aI6
aag525
ag526
ag520
aa(lp529
(lp530
I8
aI7
aI6
aa(lp531
I6
aI2
aI9
aag526
ag520
aa(lp532
(lp533
I8
aI6
aI7
aag531
ag526
ag520
aa(lp534
(lp535
I6
aI8
aI2
aa(lp536
I8
aI7
aI9
aag526
ag520
aa(lp537
(lp538
I6
aI2
aI8
aag536
ag526
ag520
aa(lp539
(lp540
I6
aI2
aI8
aa(lp541
I8
aI9
aI7
aag526
ag520
aa(lp542
(lp543
I6
aI8
aI2
aag541
ag526
ag520
aa(lp544
(lp545
I8
aI6
aI9
aa(lp546
I6
aI7
aI2
aag526
ag520
aa(lp547
(lp548
I8
aI9
aI6
aag546
ag526
ag520
aa(lp549
(lp550
I8
aI9
aI6
aa(lp551
I6
aI2
aI7
aag526
ag520
aa(lp552
(lp553
I8
aI6
aI9
aag551
ag526
ag520
aa(lp554
(lp555
I6
aI8
aI2
aa(lp556
I8
aI3
aI9
aa(lp557
I9
aI7
aI5
aag520
aa(lp558
(lp559
I6
aI2
aI8
aag556
ag557
ag520
aa(lp560
(lp561
I8
aI3
aI6
aa(lp562
I6
aI9
aI2
aag557
ag520
aa(lp563
(lp564
I8
aI6
aI3
aag562
ag557
ag520
aa(lp565
(lp566
I6
aI2
aI8
aa(lp567
I8
aI9
aI3
aag557
ag520
aa(lp568
(lp569
I6
aI8
aI2
aag567
ag557
ag520
aa(lp570
(lp571
I8
aI6
aI3
aa(lp572
I6
aI2
aI9
aag557
ag520
aa(lp573
(lp574
I8
aI3
aI6
aag572
ag557
ag520
aa(lp575
(lp576
I6
aI2
aI9
aa(lp577
I9
aI8
aI5
aa(lp578
I8
aI3
aI7
aag520
aa(lp579
(lp580
I6
aI9
aI2
aag577
ag578
ag520
aa(lp581
(lp582
I6
aI9
aI2
aa(lp583
I9
aI7
aI5
aa(lp584
I7
aI8
aI1
aa(lp585
I8
aI4
aI3
aaa(lp586
(lp587
I6
aI2
aI9
aag583
ag584
ag585
aa(lp588
(lp589
I6
aI7
aI2
aa(lp590
I7
aI8
aI9
aa(lp591
I9
aI1
aI5
aag585
aa(lp592
(lp593
I6
aI2
aI7
aag590
ag591
ag585
aa(lp594
(lp595
I6
aI2
aI7
aa(lp596
I7
aI9
aI8
aag591
ag585
aa(lp597
(lp598
I6
aI7
aI2
aag596
ag591
ag585
aa(lp599
(lp600
I7
aI6
aI8
aa(lp601
I6
aI9
aI2
aag591
ag585
aa(lp602
(lp603
I7
aI8
aI6
aag601
ag591
ag585
aa(lp604
(lp605
I7
aI6
aI9
aa(lp606
I6
aI8
aI2
aag591
ag585
aa(lp607
(lp608
I7
aI9
aI6
aag606
ag591
ag585
aa(lp609
(lp610
I7
aI9
aI6
aa(lp611
I6
aI2
aI8
aag591
ag585
aa(lp612
(lp613
I7
aI6
aI9
aag611
ag591
ag585
aa(lp614
(lp615
I7
aI8
aI6
aa(lp616
I6
aI2
aI9
aag591
ag585
aa(lp617
(lp618
I7
aI6
aI8
aag616
ag591
ag585
aa(lp619
(lp620
I7
aI6
aI1
aa(lp621
I6
aI2
aI9
aa(lp622
I9
aI8
aI5
aag585
aa(lp623
(lp624
I7
aI1
aI6
aag621
ag622
ag585
aa(lp625
(lp626
I7
aI6
aI1
aa(lp627
I6
aI9
aI2
aag622
ag585
aa(lp628
(lp629
I7
aI1
aI6
aag627
ag622
ag585
aa(lp630
(lp631
I6
aI2
aI7
aa(lp632
I7
aI9
aI1
aag622
ag585
aa(lp633
(lp634
I6
aI7
aI2
aag632
ag622
ag585
aa(lp635
(lp636
I6
aI7
aI2
aa(lp637
I7
aI1
aI9
aag622
ag585
aa(lp638
(lp639
I6
aI2
aI7
aag637
ag622
ag585
aa(lp640
(lp641
I6
aI2
aI9
aa(lp642
I9
aI7
aI5
aa(lp643
I7
aI1
aI8
aag585
aa(lp644
(lp645
I6
aI9
aI2
aag642
ag643
ag585
aa(lp646
(lp647
I8
aI6
aI1
aa(lp648
I6
aI2
aI9
aa(lp649
I9
aI7
aI5
aa(lp650
I7
aI4
aI3
aaa(lp651
(lp652
I8
aI1
aI6
aag648
ag649
ag650
aa(lp653
(lp654
I6
aI2
aI8
aa(lp655
I8
aI1
aI9
aag649
ag650
aa(lp656
(lp657
I6
aI8
aI2
aag655
ag649
ag650
aa(lp658
(lp659
I8
aI6
aI1
aa(lp660
I6
aI9
aI2
aag649
ag650
aa(lp661
(lp662
I8
aI1
aI6
aag660
ag649
ag650
aa(lp663
(lp664
I6
aI2
aI8
aa(lp665
I8
aI9
aI1
aag649
ag650
aa(lp666
(lp667
I6
aI8
aI2
aag665
ag649
ag650
aa(lp668
(lp669
I6
aI2
aI9
aa(lp670
I9
aI8
aI5
aa(lp671
I8
aI1
aI7
aag650
aa(lp672
(lp673
I6
aI9
aI2
aag670
ag671
ag650
aa(lp674
(lp675
I6
aI2
aI9
aa(lp676
I9
aI8
aI5
aa(lp677
I8
aI7
aI1
aag650
aa(lp678
(lp679
I6
aI9
aI2
aag676
ag677
ag650
aa(lp680
(lp681
I6
aI2
aI8
aa(lp682
I8
aI9
aI7
aa(lp683
I9
aI1
aI5
aag650
aa(lp684
(lp685
I6
aI8
aI2
aag682
ag683
ag650
aa(lp686
(lp687
I8
aI6
aI9
aa(lp688
I6
aI2
aI7
aag683
ag650
aa(lp689
(lp690
I8
aI9
aI6
aag688
ag683
ag650
aa(lp691
(lp692
I8
aI6
aI9
aa(lp693
I6
aI7
aI2
aag683
ag650
aa(lp694
(lp695
I8
aI9
aI6
aag693
ag683
ag650
aa(lp696
(lp697
I6
aI2
aI8
aa(lp698
I8
aI7
aI9
aag683
ag650
aa(lp699
(lp700
I6
aI8
aI2
aag698
ag683
ag650
aa(lp701
(lp702
I8
aI7
aI6
aa(lp703
I6
aI2
aI9
aag683
ag650
aa(lp704
(lp705
I8
aI6
aI7
aag703
ag683
ag650
aa(lp706
(lp707
I8
aI6
aI7
aa(lp708
I6
aI9
aI2
aag683
ag650
aa(lp709
(lp710
I8
aI7
aI6
aag708
ag683
ag650
aa(lp711
(lp712
I6
aI2
aI9
aa(lp713
I9
aI8
aI5
aa(lp714
I8
aI7
aI4
aa(lp715
I7
aI3
aI1
aaa(lp716
(lp717
I6
aI9
aI2
aag713
ag714
ag715
aa(lp718
(lp719
I8
aI6
aI4
aa(lp720
I6
aI2
aI9
aa(lp721
I9
aI7
aI5
aag715
aa(lp722
(lp723
I8
aI4
aI6
aag720
ag721
ag715
aa(lp724
(lp725
I8
aI4
aI6
aa(lp726
I6
aI9
aI2
aag721
ag715
aa(lp727
(lp728
I8
aI6
aI4
aag726
ag721
ag715
aa(lp729
(lp730
I6
aI2
aI8
aa(lp731
I8
aI9
aI4
aag721
ag715
aa(lp732
(lp733
I6
aI8
aI2
aag731
ag721
ag715
aa(lp734
(lp735
I6
aI8
aI2
aa(lp736
I8
aI4
aI9
aag721
ag715
aa(lp737
(lp738
I6
aI2
aI8
aag736
ag721
ag715
aa(lp739
(lp740
I6
aI2
aI9
aa(lp741
I9
aI8
aI5
aa(lp742
I8
aI4
aI7
aag715
aa(lp743
(lp744
I6
aI9
aI2
aag741
ag742
ag715
aa(lp745
(lp746
I6
aI9
aI2
aa(lp747
I9
aI7
aI5
aa(lp748
I7
aI4
aI8
aa(lp749
I8
aI1
aI3
aaa(lp750
(lp751
I6
aI2
aI9
aag747
ag748
ag749
aa(lp752
(lp753
I6
aI9
aI2
aa(lp754
I9
aI7
aI5
aa(lp755
I7
aI8
aI4
aag749
aa(lp756
(lp757
I6
aI2
aI9
aag754
ag755
ag749
aa(lp758
(lp759
I6
aI2
aI7
aa(lp760
I7
aI4
aI9
aa(lp761
I9
aI8
aI5
aag749
aa(lp762
(lp763
I6
aI7
aI2
aag760
ag761
ag749
aa(lp764
(lp765
I6
aI7
aI2
aa(lp766
I7
aI9
aI4
aag761
ag749
aa(lp767
(lp768
I6
aI2
aI7
aag766
ag761
ag749
aa(lp769
(lp770
I7
aI6
aI4
aa(lp771
I6
aI2
aI9
aag761
ag749
aa(lp772
(lp773
I7
aI4
aI6
aag771
ag761
ag749
aa(lp774
(lp775
I7
aI4
aI6
aa(lp776
I6
aI9
aI2
aag761
ag749
aa(lp777
(lp778
I7
aI6
aI4
aag776
ag761
ag749
aa(lp779
(lp780
I6
aI2
aI8
aa(lp781
I8
aI4
aI7
aa(lp782
I7
aI3
aI9
aa(lp783
I9
aI1
aI5
aaa(lp784
(lp785
I6
aI8
aI2
aag781
ag782
ag783
aa(lp786
(lp787
I8
aI6
aI4
aa(lp788
I6
aI2
aI7
aag782
ag783
aa(lp789
(lp790
I8
aI4
aI6
aag788
ag782
ag783
aa(lp791
(lp792
I8
aI4
aI6
aa(lp793
I6
aI7
aI2
aag782
ag783
aa(lp794
(lp795
I8
aI6
aI4
aag793
ag782
ag783
aa(lp796
(lp797
I6
aI8
aI2
aa(lp798
I8
aI7
aI4
aag782
ag783
aa(lp799
(lp800
I6
aI2
aI8
aag798
ag782
ag783
aa(lp801
(lp802
I7
aI3
aI6
aa(lp803
I6
aI8
aI2
aa(lp804
I8
aI9
aI4
aag783
aa(lp805
(lp806
I7
aI6
aI3
aag803
ag804
ag783
aa(lp807
(lp808
I6
aI7
aI2
aa(lp809
I7
aI3
aI8
aag804
ag783
aa(lp810
(lp811
I6
aI2
aI7
aag809
ag804
ag783
aa(lp812
(lp813
I6
aI2
aI7
aa(lp814
I7
aI8
aI3
aag804
ag783
aa(lp815
(lp816
I6
aI7
aI2
aag814
ag804
ag783
aa(lp817
(lp818
I7
aI6
aI3
aa(lp819
I6
aI2
aI8
aag804
ag783
aa(lp820
(lp821
I7
aI3
aI6
aag819
ag804
ag783
aa(lp822
(lp823
I6
aI8
aI2
aa(lp824
I8
aI7
aI3
aa(lp825
I7
aI9
aI4
aag783
aa(lp826
(lp827
I6
aI2
aI8
aag824
ag825
ag783
aa(lp828
(lp829
I8
aI3
aI6
aa(lp830
I6
aI2
aI7
aag825
ag783
aa(lp831
(lp832
I8
aI6
aI3
aag830
ag825
ag783
aa(lp833
(lp834
I6
aI2
aI8
aa(lp835
I8
aI3
aI7
aag825
ag783
aa(lp836
(lp837
I6
aI8
aI2
aag835
ag825
ag783
aa(lp838
(lp839
I8
aI6
aI3
aa(lp840
I6
aI7
aI2
aag825
ag783
aa(lp841
(lp842
I8
aI3
aI6
aag840
ag825
ag783
aa(lp843
(lp844
I6
aI2
aI7
aa(lp845
I7
aI8
aI3
aa(lp846
I8
aI4
aI9
aag783
aa(lp847
(lp848
I6
aI7
aI2
aag845
ag846
ag783
aa(lp849
(lp850
I6
aI7
aI2
aa(lp851
I7
aI3
aI8
aag846
ag783
aa(lp852
(lp853
I6
aI2
aI7
aag851
ag846
ag783
aa(lp854
(lp855
I7
aI6
aI3
aa(lp856
I6
aI8
aI2
aag846
ag783
aa(lp857
(lp858
I7
aI3
aI6
aag856
ag846
ag783
aa(lp859
(lp860
I7
aI6
aI3
aa(lp861
I6
aI2
aI8
aag846
ag783
aa(lp862
(lp863
I7
aI3
aI6
aag861
ag846
ag783
aa(lp864
(lp865
I6
aI2
aI7
aa(lp866
I7
aI8
aI4
aa(lp867
I8
aI9
aI3
aag783
aa(lp868
(lp869
I6
aI7
aI2
aag866
ag867
ag783
aa(lp870
(lp871
I7
aI4
aI6
aa(lp872
I6
aI2
aI8
aag867
ag783
aa(lp873
(lp874
I7
aI6
aI4
aag872
ag867
ag783
aa(lp875
(lp876
I6
aI7
aI2
aa(lp877
I7
aI4
aI8
aag867
ag783
aa(lp878
(lp879
I6
aI2
aI7
aag877
ag867
ag783
aa(lp880
(lp881
I7
aI4
aI6
aa(lp882
I6
aI8
aI2
aag867
ag783
aa(lp883
(lp884
I7
aI6
aI4
aag882
ag867
ag783
aa(lp885
(lp886
I7
aI9
aI6
aa(lp887
I6
aI2
aI8
aa(lp888
I8
aI3
aI4
aag783
aa(lp889
(lp890
I7
aI6
aI9
aag887
ag888
ag783
aa(lp891
(lp892
I7
aI9
aI6
aa(lp893
I6
aI8
aI2
aag888
ag783
aa(lp894
(lp895
I7
aI6
aI9
aag893
ag888
ag783
aa(lp896
(lp897
I7
aI6
aI8
aa(lp898
I6
aI9
aI2
aag888
ag783
aa(lp899
(lp900
I7
aI8
aI6
aag898
ag888
ag783
aa(lp901
(lp902
I6
aI2
aI7
aa(lp903
I7
aI9
aI8
aag888
ag783
aa(lp904
(lp905
I6
aI7
aI2
aag903
ag888
ag783
aa(lp906
(lp907
I7
aI8
aI6
aa(lp908
I6
aI2
aI9
aag888
ag783
aa(lp909
(lp910
I7
aI6
aI8
aag908
ag888
ag783
aa(lp911
(lp912
I6
aI2
aI7
aa(lp913
I7
aI8
aI9
aag888
ag783
aa(lp914
(lp915
I6
aI7
aI2
aag913
ag888
ag783
aa(lp916
(lp917
I8
aI7
aI6
aa(lp918
I6
aI2
aI9
aa(lp919
I7
aI3
aI4
aag783
aa(lp920
(lp921
I8
aI6
aI7
aag918
ag919
ag783
aa(lp922
(lp923
I8
aI7
aI6
aa(lp924
I6
aI9
aI2
aag919
ag783
aa(lp925
(lp926
I8
aI6
aI7
aag924
ag919
ag783
aa(lp927
(lp928
I8
aI6
aI9
aa(lp929
I6
aI2
aI7
aag919
ag783
aa(lp930
(lp931
I8
aI9
aI6
aag929
ag919
ag783
aa(lp932
(lp933
I8
aI6
aI9
aa(lp934
I6
aI7
aI2
aag919
ag783
aa(lp935
(lp936
I8
aI9
aI6
aag934
ag919
ag783
aa(lp937
(lp938
I6
aI2
aI8
aa(lp939
I8
aI9
aI7
aag919
ag783
aa(lp940
(lp941
I6
aI8
aI2
aag939
ag919
ag783
aa(lp942
(lp943
I6
aI8
aI2
aa(lp944
I8
aI7
aI9
aag919
ag783
aa(lp945
(lp946
I6
aI2
aI8
aag944
ag919
ag783
aa(lp947
(lp948
I7
aI4
aI6
aa(lp949
I6
aI8
aI2
aa(lp950
I8
aI3
aI9
aag783
aa(lp951
(lp952
I7
aI6
aI4
aag949
ag950
ag783
aa(lp953
(lp954
I6
aI2
aI7
aa(lp955
I7
aI4
aI8
aag950
ag783
aa(lp956
(lp957
I6
aI7
aI2
aag955
ag950
ag783
aa(lp958
(lp959
I6
aI7
aI2
aa(lp960
I7
aI8
aI4
aag950
ag783
aa(lp961
(lp962
I6
aI2
aI7
aag960
ag950
ag783
aa(lp963
(lp964
I7
aI4
aI6
aa(lp965
I6
aI2
aI8
aag950
ag783
aa(lp966
(lp967
I7
aI6
aI4
aag965
ag950
ag783
aa(lp968
(lp969
I8
aI7
aI4
aa(lp970
I7
aI3
aI6
aa(lp971
I6
aI9
aI2
aag783
aa(lp972
(lp973
I8
aI4
aI7
aag970
ag971
ag783
aa(lp974
(lp975
I7
aI4
aI8
aa(lp976
I8
aI6
aI3
aag971
ag783
aa(lp977
(lp978
I7
aI8
aI4
aag976
ag971
ag783
aa(lp979
(lp980
I7
aI8
aI3
aa(lp981
I8
aI4
aI6
aag971
ag783
aa(lp982
(lp983
I7
aI3
aI8
aag981
ag971
ag783
aa(lp984
(lp985
I7
aI8
aI3
aa(lp986
I8
aI6
aI4
aag971
ag783
aa(lp987
(lp988
I7
aI3
aI8
aag986
ag971
ag783
aa(lp989
(lp990
I8
aI7
aI3
aa(lp991
I7
aI4
aI6
aag971
ag783
aa(lp992
(lp993
I8
aI3
aI7
aag991
ag971
ag783
aa(lp994
(lp995
I8
aI7
aI4
aa(lp996
I7
aI6
aI3
aag971
ag783
aa(lp997
(lp998
I8
aI4
aI7
aag996
ag971
ag783
aa(lp999
(lp1000
I7
aI6
aI8
aa(lp1001
I8
aI3
aI4
aag971
ag783
aa(lp1002
(lp1003
I7
aI8
aI6
aag1001
ag971
ag783
aa(lp1004
(lp1005
I7
aI6
aI8
aa(lp1006
I8
aI4
aI3
aag971
ag783
aa(lp1007
(lp1008
I7
aI8
aI6
aag1006
ag971
ag783
aa(lp1009
(lp1010
I7
aI4
aI8
aa(lp1011
I8
aI3
aI6
aag971
ag783
aa(lp1012
(lp1013
I7
aI8
aI4
aag1011
ag971
ag783
aa(lp1014
(lp1015
I8
aI6
aI7
aa(lp1016
I7
aI3
aI4
aag971
ag783
aa(lp1017
(lp1018
I8
aI7
aI6
aag1016
ag971
ag783
aa(lp1019
(lp1020
I8
aI3
aI7
aa(lp1021
I7
aI6
aI4
aag971
ag783
aa(lp1022
(lp1023
I8
aI7
aI3
aag1021
ag971
ag783
aa(lp1024
(lp1025
I8
aI6
aI7
aa(lp1026
I7
aI4
aI3
aag971
ag783
aa(lp1027
(lp1028
I8
aI7
aI6
aag1026
ag971
ag783
aa(lp1029
(lp1030
I8
aI6
aI4
aa(lp1031
I6
aI7
aI2
aa(lp1032
I7
aI9
aI3
aag783
aa(lp1033
(lp1034
I8
aI4
aI6
aag1031
ag1032
ag783
aa(lp1035
(lp1036
I8
aI4
aI6
aa(lp1037
I6
aI2
aI7
aag1032
ag783
aa(lp1038
(lp1039
I8
aI6
aI4
aag1037
ag1032
ag783
aa(lp1040
(lp1041
I6
aI8
aI2
aa(lp1042
I8
aI7
aI4
aag1032
ag783
aa(lp1043
(lp1044
I6
aI2
aI8
aag1042
ag1032
ag783
aa(lp1045
(lp1046
I6
aI8
aI2
aa(lp1047
I8
aI4
aI7
aag1032
ag783
aa(lp1048
(lp1049
I6
aI2
aI8
aag1047
ag1032
ag783
aa(lp1050
(lp1051
I6
aI2
aI8
aa(lp1052
I8
aI7
aI9
aa(lp1053
I7
aI4
aI3
aag783
aa(lp1054
(lp1055
I6
aI8
aI2
aag1052
ag1053
ag783
aa(lp1056
(lp1057
I8
aI7
aI6
aa(lp1058
I6
aI9
aI2
aag1053
ag783
aa(lp1059
(lp1060
I8
aI6
aI7
aag1058
ag1053
ag783
aa(lp1061
(lp1062
I6
aI8
aI2
aa(lp1063
I8
aI9
aI7
aag1053
ag783
aa(lp1064
(lp1065
I6
aI2
aI8
aag1063
ag1053
ag783
aa(lp1066
(lp1067
I8
aI6
aI9
aa(lp1068
I6
aI2
aI7
aag1053
ag783
aa(lp1069
(lp1070
I8
aI9
aI6
aag1068
ag1053
ag783
aa(lp1071
(lp1072
I8
aI7
aI6
aa(lp1073
I6
aI2
aI9
aag1053
ag783
aa(lp1074
(lp1075
I8
aI6
aI7
aag1073
ag1053
ag783
aa(lp1076
(lp1077
I8
aI9
aI6
aa(lp1078
I6
aI7
aI2
aag1053
ag783
aa(lp1079
(lp1080
I8
aI6
aI9
aag1078
ag1053
ag783
aa(lp1081
(lp1082
I6
aI8
aI2
aa(lp1083
I8
aI3
aI7
aa(lp1084
I7
aI4
aI9
aag783
aa(lp1085
(lp1086
I6
aI2
aI8
aag1083
ag1084
ag783
aa(lp1087
(lp1088
I8
aI3
aI6
aa(lp1089
I6
aI2
aI7
aag1084
ag783
aa(lp1090
(lp1091
I8
aI6
aI3
aag1089
ag1084
ag783
aa(lp1092
(lp1093
I6
aI8
aI2
aa(lp1094
I8
aI7
aI3
aag1084
ag783
aa(lp1095
(lp1096
I6
aI2
aI8
aag1094
ag1084
ag783
aa(lp1097
(lp1098
I8
aI6
aI3
aa(lp1099
I6
aI7
aI2
aag1084
ag783
aa(lp1100
(lp1101
I8
aI3
aI6
aag1099
ag1084
ag783
aa(lp1102
(lp1103
I8
aI6
aI7
aa(lp1104
I7
aI4
aI3
aa(lp1105
I6
aI2
aI9
aag783
aa(lp1106
(lp1107
I8
aI7
aI6
aag1104
ag1105
ag783
aa(lp1108
(lp1109
I7
aI8
aI4
aa(lp1110
I8
aI6
aI3
aag1105
ag783
aa(lp1111
(lp1112
I7
aI4
aI8
aag1110
ag1105
ag783
aa(lp1113
(lp1114
I7
aI4
aI8
aa(lp1115
I8
aI3
aI6
aag1105
ag783
aa(lp1116
(lp1117
I7
aI8
aI4
aag1115
ag1105
ag783
aa(lp1118
(lp1119
I7
aI3
aI8
aa(lp1120
I8
aI4
aI6
aag1105
ag783
aa(lp1121
(lp1122
I7
aI8
aI3
aag1120
ag1105
ag783
aa(lp1123
(lp1124
I7
aI8
aI6
aa(lp1125
I8
aI4
aI3
aag1105
ag783
aa(lp1126
(lp1127
I7
aI6
aI8
aag1125
ag1105
ag783
aa(lp1128
(lp1129
I8
aI7
aI6
aa(lp1130
I7
aI3
aI4
aag1105
ag783
aa(lp1131
(lp1132
I8
aI6
aI7
aag1130
ag1105
ag783
aa(lp1133
(lp1134
I8
aI4
aI7
aa(lp1135
I7
aI6
aI3
aag1105
ag783
aa(lp1136
(lp1137
I8
aI7
aI4
aag1135
ag1105
ag783
aa(lp1138
(lp1139
I8
aI4
aI7
aa(lp1140
I7
aI3
aI6
aag1105
ag783
aa(lp1141
(lp1142
I8
aI7
aI4
aag1140
ag1105
ag783
aa(lp1143
(lp1144
I8
aI7
aI3
aa(lp1145
I7
aI6
aI4
aag1105
ag783
aa(lp1146
(lp1147
I8
aI3
aI7
aag1145
ag1105
ag783
aa(lp1148
(lp1149
I7
aI6
aI8
aa(lp1150
I8
aI3
aI4
aag1105
ag783
aa(lp1151
(lp1152
I7
aI8
aI6
aag1150
ag1105
ag783
aa(lp1153
(lp1154
I7
aI8
aI3
aa(lp1155
I8
aI6
aI4
aag1105
ag783
aa(lp1156
(lp1157
I7
aI3
aI8
aag1155
ag1105
ag783
aa(lp1158
(lp1159
I8
aI3
aI7
aa(lp1160
I7
aI4
aI6
aag1105
ag783
aa(lp1161
(lp1162
I8
aI7
aI3
aag1160
ag1105
ag783
aa(lp1163
(lp1164
I7
aI8
aI6
aa(lp1165
I6
aI9
aI2
aa(lp1166
I8
aI4
aI3
aag783
aa(lp1167
(lp1168
I7
aI6
aI8
aag1165
ag1166
ag783
aa(lp1169
(lp1170
I7
aI6
aI9
aa(lp1171
I6
aI8
aI2
aag1166
ag783
aa(lp1172
(lp1173
I7
aI9
aI6
aag1171
ag1166
ag783
aa(lp1174
(lp1175
I6
aI2
aI7
aa(lp1176
I7
aI8
aI9
aag1166
ag783
aa(lp1177
(lp1178
I6
aI7
aI2
aag1176
ag1166
ag783
aa(lp1179
(lp1180
I7
aI6
aI9
aa(lp1181
I6
aI2
aI8
aag1166
ag783
aa(lp1182
(lp1183
I7
aI9
aI6
aag1181
ag1166
ag783
aa(lp1184
(lp1185
I7
aI6
aI8
aa(lp1186
I6
aI2
aI9
aag1166
ag783
aa(lp1187
(lp1188
I7
aI8
aI6
aag1186
ag1166
ag783
aa(lp1189
(lp1190
I6
aI2
aI7
aa(lp1191
I7
aI9
aI8
aag1166
ag783
aa(lp1192
(lp1193
I6
aI7
aI2
aag1191
ag1166
ag783
aa(lp1194
(lp1195
I6
aI2
aI9
aa(lp1196
I9
aI8
aI5
aa(lp1197
I8
aI3
aI7
aa(lp1198
I7
aI4
aI1
aaa(lp1199
(lp1200
I6
aI9
aI2
aag1196
ag1197
ag1198
aa(lp1201
(lp1202
I8
aI3
aI6
aa(lp1203
I6
aI9
aI2
aa(lp1204
I9
aI7
aI5
aag1198
aa(lp1205
(lp1206
I8
aI6
aI3
aag1203
ag1204
ag1198
aa(lp1207
(lp1208
I6
aI2
aI8
aa(lp1209
I8
aI9
aI3
aag1204
ag1198
aa(lp1210
(lp1211
I6
aI8
aI2
aag1209
ag1204
ag1198
aa(lp1212
(lp1213
I8
aI6
aI3
aa(lp1214
I6
aI2
aI9
aag1204
ag1198
aa(lp1215
(lp1216
I8
aI3
aI6
aag1214
ag1204
ag1198
aa(lp1217
(lp1218
I6
aI8
aI2
aa(lp1219
I8
aI3
aI9
aag1204
ag1198
aa(lp1220
(lp1221
I6
aI2
aI8
aag1219
ag1204
ag1198
aa(lp1222
(lp1223
I6
aI9
aI2
aa(lp1224
I9
aI8
aI5
aa(lp1225
I8
aI7
aI3
aag1198
aa(lp1226
(lp1227
I6
aI2
aI9
aag1224
ag1225
ag1198
aa(lp1228
(lp1229
I6
aI8
aI2
aa(lp1230
I8
aI9
aI7
aa(lp1231
I9
aI3
aI5
aag1198
aa(lp1232
(lp1233
I6
aI2
aI8
aag1230
ag1231
ag1198
aa(lp1234
(lp1235
I8
aI7
aI6
aa(lp1236
I6
aI9
aI2
aag1231
ag1198
aa(lp1237
(lp1238
I8
aI6
aI7
aag1236
ag1231
ag1198
aa(lp1239
(lp1240
I6
aI8
aI2
aa(lp1241
I8
aI7
aI9
aag1231
ag1198
aa(lp1242
(lp1243
I6
aI2
aI8
aag1241
ag1231
ag1198
aa(lp1244
(lp1245
I8
aI9
aI6
aa(lp1246
I6
aI2
aI7
aag1231
ag1198
aa(lp1247
(lp1248
I8
aI6
aI9
aag1246
ag1231
ag1198
aa(lp1249
(lp1250
I8
aI9
aI6
aa(lp1251
I6
aI7
aI2
aag1231
ag1198
aa(lp1252
(lp1253
I8
aI6
aI9
aag1251
ag1231
ag1198
aa(lp1254
(lp1255
I8
aI7
aI6
aa(lp1256
I6
aI2
aI9
aag1231
ag1198
aa(lp1257
(lp1258
I8
aI6
aI7
aag1256
ag1231
ag1198
aa(lp1259
(lp1260
I6
aI9
aI2
aa(lp1261
I9
aI8
aI5
aa(lp1262
I8
aI7
aI1
aa(lp1263
I7
aI3
aI4
aaa(lp1264
(lp1265
I6
aI2
aI9
aag1261
ag1262
ag1263
aa(lp1266
(lp1267
I6
aI9
aI2
aa(lp1268
I9
aI8
aI5
aa(lp1269
I8
aI1
aI7
aag1263
aa(lp1270
(lp1271
I6
aI2
aI9
aag1268
ag1269
ag1263
aa(lp1272
(lp1273
I8
aI6
aI1
aa(lp1274
I6
aI9
aI2
aa(lp1275
I9
aI7
aI5
aag1263
aa(lp1276
(lp1277
I8
aI1
aI6
aag1274
ag1275
ag1263
aa(lp1278
(lp1279
I6
aI2
aI8
aa(lp1280
I8
aI9
aI1
aag1275
ag1263
aa(lp1281
(lp1282
I6
aI8
aI2
aag1280
ag1275
ag1263
aa(lp1283
(lp1284
I6
aI8
aI2
aa(lp1285
I8
aI1
aI9
aag1275
ag1263
aa(lp1286
(lp1287
I6
aI2
aI8
aag1285
ag1275
ag1263
aa(lp1288
(lp1289
I8
aI6
aI1
aa(lp1290
I6
aI2
aI9
aag1275
ag1263
aa(lp1291
(lp1292
I8
aI1
aI6
aag1290
ag1275
ag1263
aa(lp1293
(lp1294
I8
aI6
aI7
aa(lp1295
I6
aI2
aI9
aa(lp1296
I9
aI1
aI5
aag1263
aa(lp1297
(lp1298
I8
aI7
aI6
aag1295
ag1296
ag1263
aa(lp1299
(lp1300
I8
aI9
aI6
aa(lp1301
I6
aI2
aI7
aag1296
ag1263
aa(lp1302
(lp1303
I8
aI6
aI9
aag1301
ag1296
ag1263
aa(lp1304
(lp1305
I8
aI7
aI6
aa(lp1306
I6
aI9
aI2
aag1296
ag1263
aa(lp1307
(lp1308
I8
aI6
aI7
aag1306
ag1296
ag1263
aa(lp1309
(lp1310
I6
aI8
aI2
aa(lp1311
I8
aI9
aI7
aag1296
ag1263
aa(lp1312
(lp1313
I6
aI2
aI8
aag1311
ag1296
ag1263
aa(lp1314
(lp1315
I8
aI9
aI6
aa(lp1316
I6
aI7
aI2
aag1296
ag1263
aa(lp1317
(lp1318
I8
aI6
aI9
aag1316
ag1296
ag1263
aa(lp1319
(lp1320
I6
aI8
aI2
aa(lp1321
I8
aI7
aI9
aag1296
ag1263
aa(lp1322
(lp1323
I6
aI2
aI8
aag1321
ag1296
ag1263
aa(lp1324
(lp1325
I6
aI2
aI7
aa(lp1326
I7
aI3
aI9
aa(lp1327
I9
aI8
aI5
aa(lp1328
I8
aI1
aI4
aaa(lp1329
(lp1330
I6
aI7
aI2
aag1326
ag1327
ag1328
aa(lp1331
(lp1332
I7
aI3
aI6
aa(lp1333
I6
aI2
aI9
aag1327
ag1328
aa(lp1334
(lp1335
I7
aI6
aI3
aag1333
ag1327
ag1328
aa(lp1336
(lp1337
I7
aI6
aI3
aa(lp1338
I6
aI9
aI2
aag1327
ag1328
aa(lp1339
(lp1340
I7
aI3
aI6
aag1338
ag1327
ag1328
aa(lp1341
(lp1342
I6
aI2
aI7
aa(lp1343
I7
aI9
aI3
aag1327
ag1328
aa(lp1344
(lp1345
I6
aI7
aI2
aag1343
ag1327
ag1328
aa(lp1346
(lp1347
I6
aI9
aI2
aa(lp1348
I9
aI7
aI5
aa(lp1349
I7
aI8
aI3
aag1328
aa(lp1350
(lp1351
I6
aI2
aI9
aag1348
ag1349
ag1328
aa(lp1352
(lp1353
I6
aI2
aI9
aa(lp1354
I9
aI7
aI5
aa(lp1355
I7
aI3
aI8
aag1328
aa(lp1356
(lp1357
I6
aI9
aI2
aag1354
ag1355
ag1328
aa(lp1358
(lp1359
I7
aI9
aI6
aa(lp1360
I6
aI8
aI2
aa(lp1361
I9
aI3
aI5
aag1328
aa(lp1362
(lp1363
I7
aI6
aI9
aag1360
ag1361
ag1328
aa(lp1364
(lp1365
I6
aI7
aI2
aa(lp1366
I7
aI8
aI9
aag1361
ag1328
aa(lp1367
(lp1368
I6
aI2
aI7
aag1366
ag1361
ag1328
aa(lp1369
(lp1370
I7
aI9
aI6
aa(lp1371
I6
aI2
aI8
aag1361
ag1328
aa(lp1372
(lp1373
I7
aI6
aI9
aag1371
ag1361
ag1328
aa(lp1374
(lp1375
I7
aI6
aI8
aa(lp1376
I6
aI2
aI9
aag1361
ag1328
aa(lp1377
(lp1378
I7
aI8
aI6
aag1376
ag1361
ag1328
aa(lp1379
(lp1380
I7
aI6
aI8
aa(lp1381
I6
aI9
aI2
aag1361
ag1328
aa(lp1382
(lp1383
I7
aI8
aI6
aag1381
ag1361
ag1328
aa(lp1384
(lp1385
I6
aI7
aI2
aa(lp1386
I7
aI9
aI8
aag1361
ag1328
aa(lp1387
(lp1388
I6
aI2
aI7
aag1386
ag1361
ag1328
aa(lp1389
(lp1390
I6
aI7
aI2
aa(lp1391
I7
aI9
aI4
aa(lp1392
I9
aI8
aI5
aa(lp1393
I8
aI3
aI1
aaa(lp1394
(lp1395
I6
aI2
aI7
aag1391
ag1392
ag1393
aa(lp1396
(lp1397
I7
aI4
aI6
aa(lp1398
I6
aI2
aI9
aag1392
ag1393
aa(lp1399
(lp1400
I7
aI6
aI4
aag1398
ag1392
ag1393
aa(lp1401
(lp1402
I7
aI4
aI6
aa(lp1403
I6
aI9
aI2
aag1392
ag1393
aa(lp1404
(lp1405
I7
aI6
aI4
aag1403
ag1392
ag1393
aa(lp1406
(lp1407
I6
aI2
aI7
aa(lp1408
I7
aI4
aI9
aag1392
ag1393
aa(lp1409
(lp1410
I6
aI7
aI2
aag1408
ag1392
ag1393
aa(lp1411
(lp1412
I6
aI2
aI9
aa(lp1413
I9
aI7
aI5
aa(lp1414
I7
aI4
aI8
aag1393
aa(lp1415
(lp1416
I6
aI9
aI2
aag1413
ag1414
ag1393
aa(lp1417
(lp1418
I6
aI9
aI2
aa(lp1419
I9
aI7
aI5
aa(lp1420
I7
aI8
aI4
aag1393
aa(lp1421
(lp1422
I6
aI2
aI9
aag1419
ag1420
ag1393
aa(lp1423
(lp1424
I6
aI2
aI9
aa(lp1425
I9
aI7
aI5
aa(lp1426
I7
aI3
aI8
aa(lp1427
I8
aI4
aI1
aaa(lp1428
(lp1429
I6
aI9
aI2
aag1425
ag1426
ag1427
aa(lp1430
(lp1431
I6
aI9
aI2
aa(lp1432
I9
aI7
aI5
aa(lp1433
I7
aI8
aI3
aag1427
aa(lp1434
(lp1435
I6
aI2
aI9
aag1432
ag1433
ag1427
aa(lp1436
(lp1437
I6
aI7
aI2
aa(lp1438
I7
aI9
aI8
aa(lp1439
I9
aI3
aI5
aag1427
aa(lp1440
(lp1441
I6
aI2
aI7
aag1438
ag1439
ag1427
aa(lp1442
(lp1443
I6
aI2
aI7
aa(lp1444
I7
aI8
aI9
aag1439
ag1427
aa(lp1445
(lp1446
I6
aI7
aI2
aag1444
ag1439
ag1427
aa(lp1447
(lp1448
I7
aI6
aI8
aa(lp1449
I6
aI2
aI9
aag1439
ag1427
aa(lp1450
(lp1451
I7
aI8
aI6
aag1449
ag1439
ag1427
aa(lp1452
(lp1453
I7
aI9
aI6
aa(lp1454
I6
aI2
aI8
aag1439
ag1427
aa(lp1455
(lp1456
I7
aI6
aI9
aag1454
ag1439
ag1427
aa(lp1457
(lp1458
I7
aI9
aI6
aa(lp1459
I6
aI8
aI2
aag1439
ag1427
aa(lp1460
(lp1461
I7
aI6
aI9
aag1459
ag1439
ag1427
aa(lp1462
(lp1463
I7
aI8
aI6
aa(lp1464
I6
aI9
aI2
aag1439
ag1427
aa(lp1465
(lp1466
I7
aI6
aI8
aag1464
ag1439
ag1427
aa(lp1467
(lp1468
I6
aI7
aI2
aa(lp1469
I7
aI9
aI3
aa(lp1470
I9
aI8
aI5
aag1427
aa(lp1471
(lp1472
I6
aI2
aI7
aag1469
ag1470
ag1427
aa(lp1473
(lp1474
I6
aI7
aI2
aa(lp1475
I7
aI3
aI9
aag1470
ag1427
aa(lp1476
(lp1477
I6
aI2
aI7
aag1475
ag1470
ag1427
aa(lp1478
(lp1479
I7
aI6
aI3
aa(lp1480
I6
aI9
aI2
aag1470
ag1427
aa(lp1481
(lp1482
I7
aI3
aI6
aag1480
ag1470
ag1427
aa(lp1483
(lp1484
I7
aI6
aI3
aa(lp1485
I6
aI2
aI9
aag1470
ag1427
aa(lp1486
(lp1487
I7
aI3
aI6
aag1485
ag1470
ag1427
aa.