(lp1
(lp2
(lp3
I9
aI8
aI6
aa(lp4
I8
aI5
aI4
aa(lp5
I6
aI1
aI7
aa(lp6
I7
aI3
aI2
aaa(lp7
(lp8
I8
aI4
aI9
aa(lp9
I9
aI5
aI6
aag5
ag6
aa(lp10
(lp11
I8
aI9
aI4
aag9
ag5
ag6
aa(lp12
(lp13
I8
aI5
aI9
aa(lp14
I9
aI4
aI6
aag5
ag6
aa(lp15
(lp16
I8
aI9
aI5
aag14
ag5
ag6
aa(lp17
(lp18
I9
aI8
aI6
aa(lp19
I8
aI4
aI5
aag5
ag6
aa(lp20
(lp21
I9
aI8
aI6
aa(lp22
I6
aI7
aI1
aa(lp23
I8
aI4
aI5
aag6
aa(lp24
(lp25
I9
aI8
aI6
aa(lp26
I6
aI1
aI7
aag23
ag6
aa(lp27
(lp28
I9
aI8
aI6
aa(lp29
I8
aI4
aI5
aa(lp30
I6
aI7
aI1
aag6
aa(lp31
(lp32
I8
aI5
aI9
aa(lp33
I9
aI4
aI6
aag30
ag6
aa(lp34
(lp35
I8
aI9
aI5
aag33
ag30
ag6
aa(lp36
(lp37
I9
aI8
aI6
aa(lp38
I8
aI5
aI4
aag30
ag6
aa(lp39
(lp40
I8
aI9
aI4
aa(lp41
I9
aI5
aI6
aag30
ag6
aa(lp42
(lp43
I8
aI4
aI9
aag41
ag30
ag6
aa(lp44
(lp45
I9
aI8
aI6
aa(lp46
I6
aI7
aI1
aa(lp47
I8
aI5
aI4
aag6
aa(lp48
(lp49
I9
aI8
aI6
aa(lp50
I6
aI1
aI7
aag47
ag6
aa(lp51
(lp52
I9
aI8
aI7
aa(lp53
I8
aI5
aI4
aa(lp54
I7
aI1
aI6
aa(lp55
I6
aI2
aI3
aaa(lp56
(lp57
I8
aI4
aI9
aa(lp58
I9
aI5
aI7
aag54
ag55
aa(lp59
(lp60
I8
aI9
aI4
aag58
ag54
ag55
aa(lp61
(lp62
I8
aI9
aI5
aa(lp63
I9
aI4
aI7
aag54
ag55
aa(lp64
(lp65
I8
aI5
aI9
aag63
ag54
ag55
aa(lp66
(lp67
I9
aI8
aI7
aa(lp68
I8
aI4
aI5
aag54
ag55
aa(lp69
(lp70
I9
aI8
aI7
aa(lp71
I7
aI1
aI6
aa(lp72
I8
aI4
aI5
aag55
aa(lp73
(lp74
I9
aI8
aI7
aa(lp75
I7
aI6
aI1
aag72
ag55
aa(lp76
(lp77
I9
aI8
aI7
aa(lp78
I7
aI1
aI6
aa(lp79
I8
aI5
aI4
aag55
aa(lp80
(lp81
I9
aI8
aI7
aa(lp82
I7
aI6
aI1
aag79
ag55
aa(lp83
(lp84
I9
aI8
aI7
aa(lp85
I8
aI5
aI4
aa(lp86
I7
aI6
aI1
aag55
aa(lp87
(lp88
I8
aI5
aI9
aa(lp89
I9
aI4
aI7
aag86
ag55
aa(lp90
(lp91
I8
aI9
aI5
aag89
ag86
ag55
aa(lp92
(lp93
I9
aI8
aI7
aa(lp94
I8
aI4
aI5
aag86
ag55
aa(lp95
(lp96
I8
aI9
aI4
aa(lp97
I9
aI5
aI7
aag86
ag55
aa(lp98
(lp99
I8
aI4
aI9
aag97
ag86
ag55
aa(lp100
(lp101
I8
aI4
aI9
aa(lp102
I9
aI5
aI6
aa(lp103
I6
aI3
aI7
aa(lp104
I7
aI1
aI2
aaa(lp105
(lp106
I8
aI9
aI4
aag102
ag103
ag104
aa(lp107
(lp108
I9
aI8
aI6
aa(lp109
I8
aI5
aI4
aag103
ag104
aa(lp110
(lp111
I9
aI8
aI6
aa(lp112
I8
aI4
aI5
aag103
ag104
aa(lp113
(lp114
I8
aI9
aI5
aa(lp115
I9
aI4
aI6
aag103
ag104
aa(lp116
(lp117
I8
aI5
aI9
aag115
ag103
ag104
aa(lp118
(lp119
I9
aI8
aI6
aa(lp120
I6
aI3
aI7
aa(lp121
I8
aI5
aI4
aag104
aa(lp122
(lp123
I9
aI8
aI6
aa(lp124
I6
aI7
aI3
aag121
ag104
aa(lp125
(lp126
I8
aI9
aI5
aa(lp127
I9
aI4
aI6
aa(lp128
I6
aI7
aI3
aag104
aa(lp129
(lp130
I8
aI5
aI9
aag127
ag128
ag104
aa(lp131
(lp132
I9
aI8
aI6
aa(lp133
I8
aI5
aI4
aag128
ag104
aa(lp134
(lp135
I8
aI4
aI9
aa(lp136
I9
aI5
aI6
aag128
ag104
aa(lp137
(lp138
I8
aI9
aI4
aag136
ag128
ag104
aa(lp139
(lp140
I9
aI8
aI6
aa(lp141
I8
aI4
aI5
aag128
ag104
aa(lp142
(lp143
I9
aI8
aI6
aa(lp144
I6
aI3
aI7
aa(lp145
I8
aI4
aI5
aag104
aa(lp146
(lp147
I9
aI8
aI6
aa(lp148
I6
aI7
aI3
aag145
ag104
aa(lp149
(lp150
I9
aI8
aI7
aa(lp151
I7
aI2
aI6
aa(lp152
I8
aI4
aI5
aa(lp153
I6
aI3
aI1
aaa(lp154
(lp155
I9
aI8
aI7
aa(lp156
I7
aI6
aI2
aag152
ag153
aa(lp157
(lp158
I9
aI8
aI7
aa(lp159
I8
aI5
aI4
aa(lp160
I7
aI2
aI6
aag153
aa(lp161
(lp162
I8
aI5
aI9
aa(lp163
I9
aI4
aI7
aag160
ag153
aa(lp164
(lp165
I8
aI9
aI5
aag163
ag160
ag153
aa(lp166
(lp167
I8
aI9
aI4
aa(lp168
I9
aI5
aI7
aag160
ag153
aa(lp169
(lp170
I8
aI4
aI9
aag168
ag160
ag153
aa(lp171
(lp172
I9
aI8
aI7
aa(lp173
I8
aI4
aI5
aag160
ag153
aa(lp174
(lp175
I9
aI8
aI7
aa(lp176
I8
aI4
aI5
aa(lp177
I7
aI6
aI2
aag153
aa(lp178
(lp179
I9
aI8
aI7
aa(lp180
I8
aI5
aI4
aag177
ag153
aa(lp181
(lp182
I8
aI9
aI5
aa(lp183
I9
aI4
aI7
aag177
ag153
aa(lp184
(lp185
I8
aI5
aI9
aag183
ag177
ag153
aa(lp186
(lp187
I8
aI9
aI4
aa(lp188
I9
aI5
aI7
aag177
ag153
aa(lp189
(lp190
I8
aI4
aI9
aag188
ag177
ag153
aa(lp191
(lp192
I9
aI8
aI7
aa(lp193
I7
aI6
aI2
aa(lp194
I8
aI5
aI4
aag153
aa(lp195
(lp196
I9
aI8
aI7
aa(lp197
I7
aI2
aI6
aag194
ag153
aa(lp198
(lp199
I9
aI8
aI7
aa(lp200
I7
aI6
aI1
aa(lp201
I8
aI5
aI4
aa(lp202
I6
aI3
aI2
aaa(lp203
(lp204
I9
aI8
aI7
aa(lp205
I7
aI1
aI6
aag201
ag202
aa(lp206
(lp207
I8
aI9
aI4
aa(lp208
I9
aI5
aI7
aa(lp209
I7
aI6
aI1
aag202
aa(lp210
(lp211
I8
aI4
aI9
aag208
ag209
ag202
aa(lp212
(lp213
I9
aI8
aI7
aa(lp214
I8
aI5
aI4
aag209
ag202
aa(lp215
(lp216
I9
aI8
aI7
aa(lp217
I8
aI4
aI5
aag209
ag202
aa(lp218
(lp219
I8
aI9
aI5
aa(lp220
I9
aI4
aI7
aag209
ag202
aa(lp221
(lp222
I8
aI5
aI9
aag220
ag209
ag202
aa(lp223
(lp224
I9
aI8
aI7
aa(lp225
I8
aI4
aI5
aa(lp226
I7
aI1
aI6
aag202
aa(lp227
(lp228
I8
aI9
aI4
aa(lp229
I9
aI5
aI7
aag226
ag202
aa(lp230
(lp231
I8
aI4
aI9
aag229
ag226
ag202
aa(lp232
(lp233
I8
aI5
aI9
aa(lp234
I9
aI4
aI7
aag226
ag202
aa(lp235
(lp236
I8
aI9
aI5
aag234
ag226
ag202
aa(lp237
(lp238
I9
aI8
aI7
aa(lp239
I8
aI5
aI4
aag226
ag202
aa(lp240
(lp241
I9
aI8
aI7
aa(lp242
I7
aI1
aI6
aa(lp243
I8
aI4
aI5
aag202
aa(lp244
(lp245
I9
aI8
aI7
aa(lp246
I7
aI6
aI1
aag243
ag202
aa(lp247
(lp248
I9
aI8
aI7
aa(lp249
I7
aI6
aI2
aa(lp250
I8
aI5
aI4
aa(lp251
I6
aI1
aI3
aaa(lp252
(lp253
I9
aI8
aI7
aa(lp254
I7
aI2
aI6
aag250
ag251
aa(lp255
(lp256
I9
aI8
aI7
aa(lp257
I7
aI2
aI6
aa(lp258
I8
aI4
aI5
aag251
aa(lp259
(lp260
I9
aI8
aI7
aa(lp261
I7
aI6
aI2
aag258
ag251
aa(lp262
(lp263
I8
aI4
aI9
aa(lp264
I9
aI5
aI7
aa(lp265
I7
aI6
aI2
aag251
aa(lp266
(lp267
I8
aI9
aI4
aag264
ag265
ag251
aa(lp268
(lp269
I9
aI8
aI7
aa(lp270
I8
aI5
aI4
aag265
ag251
aa(lp271
(lp272
I9
aI8
aI7
aa(lp273
I8
aI4
aI5
aag265
ag251
aa(lp274
(lp275
I8
aI9
aI5
aa(lp276
I9
aI4
aI7
aag265
ag251
aa(lp277
(lp278
I8
aI5
aI9
aag276
ag265
ag251
aa(lp279
(lp280
I9
aI8
aI7
aa(lp281
I8
aI5
aI4
aa(lp282
I7
aI2
aI6
aag251
aa(lp283
(lp284
I9
aI8
aI7
aa(lp285
I8
aI4
aI5
aag282
ag251
aa(lp286
(lp287
I8
aI5
aI9
aa(lp288
I9
aI4
aI7
aag282
ag251
aa(lp289
(lp290
I8
aI9
aI5
aag288
ag282
ag251
aa(lp291
(lp292
I8
aI9
aI4
aa(lp293
I9
aI5
aI7
aag282
ag251
aa(lp294
(lp295
I8
aI4
aI9
aag293
ag282
ag251
aa(lp296
(lp297
I9
aI8
aI6
aa(lp298
I6
aI7
aI1
aa(lp299
I7
aI3
aI2
aa(lp300
I8
aI4
aI5
aaa(lp301
(lp302
I9
aI8
aI6
aa(lp303
I6
aI1
aI7
aag299
ag300
aa(lp304
(lp305
I9
aI8
aI6
aa(lp306
I6
aI3
aI7
aa(lp307
I7
aI1
aI2
aag300
aa(lp308
(lp309
I9
aI8
aI6
aa(lp310
I6
aI7
aI3
aag307
ag300
aa(lp311
(lp312
I9
aI8
aI7
aa(lp313
I7
aI6
aI1
aa(lp314
I6
aI3
aI2
aag300
aa(lp315
(lp316
I9
aI8
aI7
aa(lp317
I7
aI1
aI6
aag314
ag300
aa(lp318
(lp319
I9
aI8
aI7
aa(lp320
I7
aI6
aI2
aa(lp321
I6
aI3
aI1
aag300
aa(lp322
(lp323
I9
aI8
aI7
aa(lp324
I7
aI2
aI6
aag321
ag300
aa(lp325
(lp326
I9
aI8
aI7
aa(lp327
I7
aI2
aI6
aa(lp328
I6
aI1
aI3
aag300
aa(lp329
(lp330
I9
aI8
aI7
aa(lp331
I7
aI6
aI2
aag328
ag300
aa(lp332
(lp333
I9
aI8
aI7
aa(lp334
I7
aI6
aI3
aa(lp335
I6
aI1
aI2
aag300
aa(lp336
(lp337
I9
aI8
aI7
aa(lp338
I7
aI3
aI6
aag335
ag300
aa(lp339
(lp340
I9
aI8
aI7
aa(lp341
I7
aI1
aI6
aa(lp342
I6
aI2
aI3
aag300
aa(lp343
(lp344
I9
aI8
aI7
aa(lp345
I7
aI6
aI1
aag342
ag300
aa(lp346
(lp347
I9
aI8
aI6
aa(lp348
I6
aI7
aI3
aa(lp349
I7
aI2
aI1
aag300
aa(lp350
(lp351
I9
aI8
aI6
aa(lp352
I6
aI3
aI7
aag349
ag300
aa(lp353
(lp354
I9
aI8
aI6
aa(lp355
I6
aI7
aI2
aa(lp356
I7
aI1
aI3
aag300
aa(lp357
(lp358
I9
aI8
aI6
aa(lp359
I6
aI2
aI7
aag356
ag300
aa(lp360
(lp361
I9
aI8
aI6
aa(lp362
I6
aI7
aI2
aa(lp363
I7
aI3
aI1
aag300
aa(lp364
(lp365
I9
aI8
aI6
aa(lp366
I6
aI2
aI7
aag363
ag300
aa(lp367
(lp368
I9
aI8
aI6
aa(lp369
I6
aI1
aI7
aa(lp370
I7
aI2
aI3
aag300
aa(lp371
(lp372
I9
aI8
aI6
aa(lp373
I6
aI7
aI1
aag370
ag300
aa(lp374
(lp375
I9
aI8
aI7
aa(lp376
I7
aI6
aI3
aa(lp377
I6
aI2
aI1
aag300
aa(lp378
(lp379
I9
aI8
aI7
aa(lp380
I7
aI3
aI6
aag377
ag300
aa(lp381
(lp382
I9
aI8
aI7
aa(lp383
I8
aI4
aI5
aa(lp384
I7
aI3
aI6
aa(lp385
I6
aI2
aI1
aaa(lp386
(lp387
I8
aI5
aI9
aa(lp388
I9
aI4
aI7
aag384
ag385
aa(lp389
(lp390
I8
aI9
aI5
aag388
ag384
ag385
aa(lp391
(lp392
I9
aI8
aI7
aa(lp393
I8
aI5
aI4
aag384
ag385
aa(lp394
(lp395
I8
aI4
aI9
aa(lp396
I9
aI5
aI7
aag384
ag385
aa(lp397
(lp398
I8
aI9
aI4
aag396
ag384
ag385
aa(lp399
(lp400
I8
aI9
aI5
aa(lp401
I9
aI4
aI7
aa(lp402
I7
aI6
aI3
aag385
aa(lp403
(lp404
I8
aI5
aI9
aag401
ag402
ag385
aa(lp405
(lp406
I9
aI8
aI7
aa(lp407
I8
aI4
aI5
aag402
ag385
aa(lp408
(lp409
I9
aI8
aI7
aa(lp410
I8
aI5
aI4
aag402
ag385
aa(lp411
(lp412
I8
aI9
aI4
aa(lp413
I9
aI5
aI7
aag402
ag385
aa(lp414
(lp415
I8
aI4
aI9
aag413
ag402
ag385
aa(lp416
(lp417
I9
aI8
aI7
aa(lp418
I7
aI3
aI6
aa(lp419
I8
aI4
aI5
aag385
aa(lp420
(lp421
I9
aI8
aI7
aa(lp422
I7
aI6
aI3
aag419
ag385
aa(lp423
(lp424
I9
aI8
aI7
aa(lp425
I7
aI6
aI3
aa(lp426
I8
aI5
aI4
aag385
aa(lp427
(lp428
I9
aI8
aI7
aa(lp429
I7
aI3
aI6
aag426
ag385
aa(lp430
(lp431
I9
aI8
aI6
aa(lp432
I8
aI4
aI5
aa(lp433
I6
aI2
aI7
aa(lp434
I7
aI3
aI1
aaa(lp435
(lp436
I9
aI8
aI6
aa(lp437
I8
aI5
aI4
aag433
ag434
aa(lp438
(lp439
I8
aI5
aI9
aa(lp440
I9
aI4
aI6
aag433
ag434
aa(lp441
(lp442
I8
aI9
aI5
aag440
ag433
ag434
aa(lp443
(lp444
I8
aI4
aI9
aa(lp445
I9
aI5
aI6
aag433
ag434
aa(lp446
(lp447
I8
aI9
aI4
aag445
ag433
ag434
aa(lp448
(lp449
I9
aI8
aI6
aa(lp450
I6
aI2
aI7
aa(lp451
I8
aI5
aI4
aag434
aa(lp452
(lp453
I9
aI8
aI6
aa(lp454
I6
aI7
aI2
aag451
ag434
aa(lp455
(lp456
I9
aI8
aI6
aa(lp457
I6
aI7
aI2
aa(lp458
I8
aI4
aI5
aag434
aa(lp459
(lp460
I9
aI8
aI6
aa(lp461
I6
aI2
aI7
aag458
ag434
aa(lp462
(lp463
I9
aI8
aI6
aa(lp464
I8
aI4
aI5
aa(lp465
I6
aI7
aI2
aag434
aa(lp466
(lp467
I9
aI8
aI6
aa(lp468
I8
aI5
aI4
aag465
ag434
aa(lp469
(lp470
I8
aI9
aI5
aa(lp471
I9
aI4
aI6
aag465
ag434
aa(lp472
(lp473
I8
aI5
aI9
aag471
ag465
ag434
aa(lp474
(lp475
I8
aI4
aI9
aa(lp476
I9
aI5
aI6
aag465
ag434
aa(lp477
(lp478
I8
aI9
aI4
aag476
ag465
ag434
aa(lp479
(lp480
I9
aI8
aI6
aa(lp481
I6
aI7
aI1
aa(lp482
I8
aI4
aI5
aa(lp483
I7
aI2
aI3
aaa(lp484
(lp485
I9
aI8
aI6
aa(lp486
I6
aI1
aI7
aag482
ag483
aa(lp487
(lp488
I9
aI8
aI6
aa(lp489
I6
aI1
aI7
aa(lp490
I8
aI5
aI4
aag483
aa(lp491
(lp492
I9
aI8
aI6
aa(lp493
I6
aI7
aI1
aag490
ag483
aa(lp494
(lp495
I8
aI5
aI9
aa(lp496
I9
aI4
aI6
aa(lp497
I6
aI1
aI7
aag483
aa(lp498
(lp499
I8
aI9
aI5
aag496
ag497
ag483
aa(lp500
(lp501
I8
aI9
aI4
aa(lp502
I9
aI5
aI6
aag497
ag483
aa(lp503
(lp504
I8
aI4
aI9
aag502
ag497
ag483
aa(lp505
(lp506
I9
aI8
aI6
aa(lp507
I8
aI5
aI4
aag497
ag483
aa(lp508
(lp509
I9
aI8
aI6
aa(lp510
I8
aI4
aI5
aag497
ag483
aa(lp511
(lp512
I8
aI4
aI9
aa(lp513
I9
aI5
aI6
aa(lp514
I6
aI7
aI1
aag483
aa(lp515
(lp516
I8
aI9
aI4
aag513
ag514
ag483
aa(lp517
(lp518
I9
aI8
aI6
aa(lp519
I8
aI4
aI5
aag514
ag483
aa(lp520
(lp521
I8
aI9
aI5
aa(lp522
I9
aI4
aI6
aag514
ag483
aa(lp523
(lp524
I8
aI5
aI9
aag522
ag514
ag483
aa(lp525
(lp526
I9
aI8
aI6
aa(lp527
I8
aI5
aI4
aag514
ag483
aa(lp528
(lp529
I9
aI8
aI6
aa(lp530
I6
aI2
aI7
aa(lp531
I8
aI4
aI5
aa(lp532
I7
aI1
aI3
aaa(lp533
(lp534
I9
aI8
aI6
aa(lp535
I6
aI7
aI2
aag531
ag532
aa(lp536
(lp537
I9
aI8
aI6
aa(lp538
I6
aI2
aI7
aa(lp539
I8
aI5
aI4
aag532
aa(lp540
(lp541
I9
aI8
aI6
aa(lp542
I6
aI7
aI2
aag539
ag532
aa(lp543
(lp544
I8
aI5
aI9
aa(lp545
I9
aI4
aI6
aa(lp546
I6
aI7
aI2
aag532
aa(lp547
(lp548
I8
aI9
aI5
aag545
ag546
ag532
aa(lp549
(lp550
I8
aI4
aI9
aa(lp551
I9
aI5
aI6
aag546
ag532
aa(lp552
(lp553
I8
aI9
aI4
aag551
ag546
ag532
aa(lp554
(lp555
I9
aI8
aI6
aa(lp556
I8
aI4
aI5
aag546
ag532
aa(lp557
(lp558
I9
aI8
aI6
aa(lp559
I8
aI5
aI4
aag546
ag532
aa(lp560
(lp561
I8
aI9
aI5
aa(lp562
I9
aI4
aI6
aa(lp563
I6
aI2
aI7
aag532
aa(lp564
(lp565
I8
aI5
aI9
aag562
ag563
ag532
aa(lp566
(lp567
I9
aI8
aI6
aa(lp568
I8
aI5
aI4
aag563
ag532
aa(lp569
(lp570
I8
aI4
aI9
aa(lp571
I9
aI5
aI6
aag563
ag532
aa(lp572
(lp573
I8
aI9
aI4
aag571
ag563
ag532
aa(lp574
(lp575
I9
aI8
aI6
aa(lp576
I8
aI4
aI5
aag563
ag532
aa(lp577
(lp578
I9
aI8
aI6
aa(lp579
I8
aI4
aI5
aa(lp580
I6
aI3
aI7
aa(lp581
I7
aI2
aI1
aaa(lp582
(lp583
I8
aI5
aI9
aa(lp584
I9
aI4
aI6
aag580
ag581
aa(lp585
(lp586
I8
aI9
aI5
aag584
ag580
ag581
aa(lp587
(lp588
I9
aI8
aI6
aa(lp589
I8
aI5
aI4
aag580
ag581
aa(lp590
(lp591
I8
aI4
aI9
aa(lp592
I9
aI5
aI6
aag580
ag581
aa(lp593
(lp594
I8
aI9
aI4
aag592
ag580
ag581
aa(lp595
(lp596
I9
aI8
aI6
aa(lp597
I8
aI4
aI5
aa(lp598
I6
aI7
aI3
aag581
aa(lp599
(lp600
I8
aI9
aI4
aa(lp601
I9
aI5
aI6
aag598
ag581
aa(lp602
(lp603
I8
aI4
aI9
aag601
ag598
ag581
aa(lp604
(lp605
I9
aI8
aI6
aa(lp606
I8
aI5
aI4
aag598
ag581
aa(lp607
(lp608
I8
aI5
aI9
aa(lp609
I9
aI4
aI6
aag598
ag581
aa(lp610
(lp611
I8
aI9
aI5
aag609
ag598
ag581
aa(lp612
(lp613
I9
aI8
aI6
aa(lp614
I6
aI7
aI3
aa(lp615
I8
aI5
aI4
aag581
aa(lp616
(lp617
I9
aI8
aI6
aa(lp618
I6
aI3
aI7
aag615
ag581
aa(lp619
(lp620
I9
aI8
aI6
aa(lp621
I6
aI7
aI3
aa(lp622
I8
aI4
aI5
aag581
aa(lp623
(lp624
I9
aI8
aI6
aa(lp625
I6
aI3
aI7
aag622
ag581
aa(lp626
(lp627
I9
aI8
aI7
aa(lp628
I7
aI6
aI3
aa(lp629
I8
aI4
aI5
aa(lp630
I6
aI1
aI2
aaa(lp631
(lp632
I9
aI8
aI7
aa(lp633
I7
aI3
aI6
aag629
ag630
aa(lp634
(lp635
I8
aI9
aI4
aa(lp636
I9
aI5
aI7
aa(lp637
I7
aI3
aI6
aag630
aa(lp638
(lp639
I8
aI4
aI9
aag636
ag637
ag630
aa(lp640
(lp641
I9
aI8
aI7
aa(lp642
I8
aI5
aI4
aag637
ag630
aa(lp643
(lp644
I9
aI8
aI7
aa(lp645
I8
aI4
aI5
aag637
ag630
aa(lp646
(lp647
I8
aI5
aI9
aa(lp648
I9
aI4
aI7
aag637
ag630
aa(lp649
(lp650
I8
aI9
aI5
aag648
ag637
ag630
aa(lp651
(lp652
I9
aI8
aI7
aa(lp653
I7
aI6
aI3
aa(lp654
I8
aI5
aI4
aag630
aa(lp655
(lp656
I9
aI8
aI7
aa(lp657
I7
aI3
aI6
aag654
ag630
aa(lp658
(lp659
I8
aI9
aI5
aa(lp660
I9
aI4
aI7
aa(lp661
I7
aI6
aI3
aag630
aa(lp662
(lp663
I8
aI5
aI9
aag660
ag661
ag630
aa(lp664
(lp665
I9
aI8
aI7
aa(lp666
I8
aI4
aI5
aag661
ag630
aa(lp667
(lp668
I8
aI4
aI9
aa(lp669
I9
aI5
aI7
aag661
ag630
aa(lp670
(lp671
I8
aI9
aI4
aag669
ag661
ag630
aa(lp672
(lp673
I9
aI8
aI7
aa(lp674
I8
aI5
aI4
aag661
ag630
aa(lp675
(lp676
I9
aI8
aI7
aa(lp677
I7
aI6
aI3
aa(lp678
I6
aI1
aI2
aa(lp679
I8
aI5
aI4
aaa(lp680
(lp681
I9
aI8
aI7
aa(lp682
I7
aI3
aI6
aag678
ag679
aa(lp683
(lp684
I9
aI8
aI6
aa(lp685
I6
aI7
aI3
aa(lp686
I7
aI2
aI1
aag679
aa(lp687
(lp688
I9
aI8
aI6
aa(lp689
I6
aI3
aI7
aag686
ag679
aa(lp690
(lp691
I9
aI8
aI6
aa(lp692
I6
aI7
aI1
aa(lp693
I7
aI3
aI2
aag679
aa(lp694
(lp695
I9
aI8
aI6
aa(lp696
I6
aI1
aI7
aag693
ag679
aa(lp697
(lp698
I9
aI8
aI6
aa(lp699
I6
aI3
aI7
aa(lp700
I7
aI1
aI2
aag679
aa(lp701
(lp702
I9
aI8
aI6
aa(lp703
I6
aI7
aI3
aag700
ag679
aa(lp704
(lp705
I9
aI8
aI6
aa(lp706
I6
aI2
aI7
aa(lp707
I7
aI1
aI3
aag679
aa(lp708
(lp709
I9
aI8
aI6
aa(lp710
I6
aI7
aI2
aag707
ag679
aa(lp711
(lp712
I9
aI8
aI6
aa(lp713
I6
aI7
aI1
aa(lp714
I7
aI2
aI3
aag679
aa(lp715
(lp716
I9
aI8
aI6
aa(lp717
I6
aI1
aI7
aag714
ag679
aa(lp718
(lp719
I9
aI8
aI7
aa(lp720
I7
aI1
aI6
aa(lp721
I6
aI2
aI3
aag679
aa(lp722
(lp723
I9
aI8
aI7
aa(lp724
I7
aI6
aI1
aag721
ag679
aa(lp725
(lp726
I9
aI8
aI7
aa(lp727
I7
aI2
aI6
aa(lp728
I6
aI1
aI3
aag679
aa(lp729
(lp730
I9
aI8
aI7
aa(lp731
I7
aI6
aI2
aag728
ag679
aa(lp732
(lp733
I9
aI8
aI6
aa(lp734
I6
aI2
aI7
aa(lp735
I7
aI3
aI1
aag679
aa(lp736
(lp737
I9
aI8
aI6
aa(lp738
I6
aI7
aI2
aag735
ag679
aa(lp739
(lp740
I9
aI8
aI7
aa(lp741
I7
aI6
aI1
aa(lp742
I6
aI3
aI2
aag679
aa(lp743
(lp744
I9
aI8
aI7
aa(lp745
I7
aI1
aI6
aag742
ag679
aa(lp746
(lp747
I9
aI8
aI7
aa(lp748
I7
aI6
aI3
aa(lp749
I6
aI2
aI1
aag679
aa(lp750
(lp751
I9
aI8
aI7
aa(lp752
I7
aI3
aI6
aag749
ag679
aa(lp753
(lp754
I9
aI8
aI7
aa(lp755
I7
aI6
aI2
aa(lp756
I6
aI3
aI1
aag679
aa(lp757
(lp758
I9
aI8
aI7
aa(lp759
I7
aI2
aI6
aag756
ag679
aa.